target datalayout = "e-m:e-p270:32:32-p271:32:32-p272:64:64-i64:64-i128:128-f80:128-n8:16:32:64-S128"
target triple = "x86_64-pc-linux-gnu"

%struct.Wlc_Ntk_t_ = type { ptr, ptr, %struct.Vec_Int_t_, %struct.Vec_Int_t_, %struct.Vec_Int_t_, %struct.Vec_Int_t_, %struct.Vec_Int_t_, %struct.Vec_Int_t_, ptr, ptr, ptr, [60 x i32], [60 x i32], i32, i32, i32, i32, i32, ptr, i32, i32, ptr, ptr, ptr, ptr, ptr, %struct.Vec_Int_t_, %struct.Vec_Int_t_, i32, %struct.Vec_Int_t_, %struct.Vec_Int_t_, %struct.Vec_Int_t_, %struct.Vec_Int_t_, %struct.Vec_Int_t_, %struct.Vec_Int_t_ }
%struct.Vec_Int_t_ = type { i32, i32, ptr }
%struct.Wlc_Obj_t_ = type { i16, i32, i32, i32, %union.anon }
%union.anon = type { [1 x ptr] }
%struct.Vec_Bit_t_ = type { i32, i32, ptr }

; Function Attrs: inlinehint nounwind uwtable
define internal i32 @Wlc_ObjHasArray(ptr noundef %0) #2 {
  %2 = alloca ptr, align 8
  store ptr %0, ptr %2, align 8, !tbaa !16
  %3 = load ptr, ptr %2, align 8, !tbaa !16
  %4 = getelementptr inbounds nuw %struct.Wlc_Obj_t_, ptr %3, i32 0, i32 1
  %5 = load i32, ptr %4, align 4, !tbaa !46
  %6 = icmp ugt i32 %5, 2
  br i1 %6, label %19, label %7

7:                                                ; preds = %1
  %8 = load ptr, ptr %2, align 8, !tbaa !16
  %9 = load i16, ptr %8, align 8
  %10 = and i16 %9, 63
  %11 = zext i16 %10 to i32
  %12 = icmp eq i32 %11, 6
  br i1 %12, label %19, label %13

13:                                               ; preds = %7
  %14 = load ptr, ptr %2, align 8, !tbaa !16
  %15 = load i16, ptr %14, align 8
  %16 = and i16 %15, 63
  %17 = zext i16 %16 to i32
  %18 = icmp eq i32 %17, 22
  br label %19

19:                                               ; preds = %13, %7, %1
  %20 = phi i1 [ true, %7 ], [ true, %1 ], [ %18, %13 ]
  %21 = zext i1 %20 to i32
  ret i32 %21
}

; Function Attrs: inlinehint nounwind uwtable
define internal ptr @Wlc_ObjFanins(ptr noundef %0) #2 {
  %2 = alloca ptr, align 8
  store ptr %0, ptr %2, align 8, !tbaa !16
  %3 = load ptr, ptr %2, align 8, !tbaa !16
  %4 = call i32 @Wlc_ObjHasArray(ptr noundef %3)
  %5 = icmp ne i32 %4, 0
  br i1 %5, label %6, label %11

6:                                                ; preds = %1
  %7 = load ptr, ptr %2, align 8, !tbaa !16
  %8 = getelementptr inbounds nuw %struct.Wlc_Obj_t_, ptr %7, i32 0, i32 4
  %9 = getelementptr inbounds [1 x ptr], ptr %8, i64 0, i64 0
  %10 = load ptr, ptr %9, align 8, !tbaa !69
  br label %15

11:                                               ; preds = %1
  %12 = load ptr, ptr %2, align 8, !tbaa !16
  %13 = getelementptr inbounds nuw %struct.Wlc_Obj_t_, ptr %12, i32 0, i32 4
  %14 = getelementptr inbounds [2 x i32], ptr %13, i64 0, i64 0
  br label %15

15:                                               ; preds = %11, %6
  %16 = phi ptr [ %10, %6 ], [ %14, %11 ]
  ret ptr %16
}

; Function Attrs: inlinehint nounwind uwtable
define internal void @Vec_IntGrow(ptr noundef %0, i32 noundef %1) #2 {
  %3 = alloca ptr, align 8
  %4 = alloca i32, align 4
  store ptr %0, ptr %3, align 8, !tbaa !39
  store i32 %1, ptr %4, align 4, !tbaa !15
  %5 = load ptr, ptr %3, align 8, !tbaa !39
  %6 = getelementptr inbounds nuw %struct.Vec_Int_t_, ptr %5, i32 0, i32 0
  %7 = load i32, ptr %6, align 8, !tbaa !45
  %8 = load i32, ptr %4, align 4, !tbaa !15
  %9 = icmp sge i32 %7, %8
  br i1 %9, label %10, label %11

10:                                               ; preds = %2
  br label %36

11:                                               ; preds = %2
  %12 = load ptr, ptr %3, align 8, !tbaa !39
  %13 = getelementptr inbounds nuw %struct.Vec_Int_t_, ptr %12, i32 0, i32 2
  %14 = load ptr, ptr %13, align 8, !tbaa !43
  %15 = icmp ne ptr %14, null
  br i1 %15, label %16, label %24

16:                                               ; preds = %11
  %17 = load ptr, ptr %3, align 8, !tbaa !39
  %18 = getelementptr inbounds nuw %struct.Vec_Int_t_, ptr %17, i32 0, i32 2
  %19 = load ptr, ptr %18, align 8, !tbaa !43
  %20 = load i32, ptr %4, align 4, !tbaa !15
  %21 = sext i32 %20 to i64
  %22 = mul i64 4, %21
  %23 = call ptr @realloc(ptr noundef %19, i64 noundef %22) #17
  br label %29

24:                                               ; preds = %11
  %25 = load i32, ptr %4, align 4, !tbaa !15
  %26 = sext i32 %25 to i64
  %27 = mul i64 4, %26
  %28 = call noalias ptr @malloc(i64 noundef %27) #15
  br label %29

29:                                               ; preds = %24, %16
  %30 = phi ptr [ %23, %16 ], [ %28, %24 ]
  %31 = load ptr, ptr %3, align 8, !tbaa !39
  %32 = getelementptr inbounds nuw %struct.Vec_Int_t_, ptr %31, i32 0, i32 2
  store ptr %30, ptr %32, align 8, !tbaa !43
  %33 = load i32, ptr %4, align 4, !tbaa !15
  %34 = load ptr, ptr %3, align 8, !tbaa !39
  %35 = getelementptr inbounds nuw %struct.Vec_Int_t_, ptr %34, i32 0, i32 0
  store i32 %33, ptr %35, align 8, !tbaa !45
  br label %36

36:                                               ; preds = %29, %10
  ret void
}

; Function Attrs: inlinehint nounwind uwtable
define internal ptr @Wlc_NtkObj(ptr noundef %0, i32 noundef %1) #2 {
  %3 = alloca ptr, align 8
  %4 = alloca i32, align 4
  store ptr %0, ptr %3, align 8, !tbaa !13
  store i32 %1, ptr %4, align 4, !tbaa !15
  %5 = load ptr, ptr %3, align 8, !tbaa !13
  %6 = getelementptr inbounds nuw %struct.Wlc_Ntk_t_, ptr %5, i32 0, i32 18
  %7 = load ptr, ptr %6, align 8, !tbaa !27
  %8 = load i32, ptr %4, align 4, !tbaa !15
  %9 = sext i32 %8 to i64
  %10 = getelementptr inbounds %struct.Wlc_Obj_t_, ptr %7, i64 %9
  ret ptr %10
}

; Function Attrs: inlinehint nounwind uwtable
define internal i32 @Wlc_ObjFaninId(ptr noundef %0, i32 noundef %1) #2 {
  %3 = alloca ptr, align 8
  %4 = alloca i32, align 4
  store ptr %0, ptr %3, align 8, !tbaa !16
  store i32 %1, ptr %4, align 4, !tbaa !15
  %5 = load ptr, ptr %3, align 8, !tbaa !16
  %6 = call ptr @Wlc_ObjFanins(ptr noundef %5)
  %7 = load i32, ptr %4, align 4, !tbaa !15
  %8 = sext i32 %7 to i64
  %9 = getelementptr inbounds i32, ptr %6, i64 %8
  %10 = load i32, ptr %9, align 4, !tbaa !15
  ret i32 %10
}

; Function Attrs: inlinehint nounwind uwtable
define internal i32 @Wlc_ObjFaninNum(ptr noundef %0) #2 {
  %2 = alloca ptr, align 8
  store ptr %0, ptr %2, align 8, !tbaa !16
  %3 = load ptr, ptr %2, align 8, !tbaa !16
  %4 = getelementptr inbounds nuw %struct.Wlc_Obj_t_, ptr %3, i32 0, i32 1
  %5 = load i32, ptr %4, align 4, !tbaa !46
  ret i32 %5
}

; Function Attrs: inlinehint nounwind uwtable
define internal void @Vec_IntPush(ptr noundef %0, i32 noundef %1) #2 {
  %3 = alloca ptr, align 8
  %4 = alloca i32, align 4
  store ptr %0, ptr %3, align 8, !tbaa !39
  store i32 %1, ptr %4, align 4, !tbaa !15
  %5 = load ptr, ptr %3, align 8, !tbaa !39
  %6 = getelementptr inbounds nuw %struct.Vec_Int_t_, ptr %5, i32 0, i32 1
  %7 = load i32, ptr %6, align 4, !tbaa !44
  %8 = load ptr, ptr %3, align 8, !tbaa !39
  %9 = getelementptr inbounds nuw %struct.Vec_Int_t_, ptr %8, i32 0, i32 0
  %10 = load i32, ptr %9, align 8, !tbaa !45
  %11 = icmp eq i32 %7, %10
  br i1 %11, label %12, label %26

12:                                               ; preds = %2
  %13 = load ptr, ptr %3, align 8, !tbaa !39
  %14 = getelementptr inbounds nuw %struct.Vec_Int_t_, ptr %13, i32 0, i32 0
  %15 = load i32, ptr %14, align 8, !tbaa !45
  %16 = icmp slt i32 %15, 16
  br i1 %16, label %17, label %19

17:                                               ; preds = %12
  %18 = load ptr, ptr %3, align 8, !tbaa !39
  call void @Vec_IntGrow(ptr noundef %18, i32 noundef 16)
  br label %25

19:                                               ; preds = %12
  %20 = load ptr, ptr %3, align 8, !tbaa !39
  %21 = load ptr, ptr %3, align 8, !tbaa !39
  %22 = getelementptr inbounds nuw %struct.Vec_Int_t_, ptr %21, i32 0, i32 0
  %23 = load i32, ptr %22, align 8, !tbaa !45
  %24 = mul nsw i32 2, %23
  call void @Vec_IntGrow(ptr noundef %20, i32 noundef %24)
  br label %25

25:                                               ; preds = %19, %17
  br label %26

26:                                               ; preds = %25, %2
  %27 = load i32, ptr %4, align 4, !tbaa !15
  %28 = load ptr, ptr %3, align 8, !tbaa !39
  %29 = getelementptr inbounds nuw %struct.Vec_Int_t_, ptr %28, i32 0, i32 2
  %30 = load ptr, ptr %29, align 8, !tbaa !43
  %31 = load ptr, ptr %3, align 8, !tbaa !39
  %32 = getelementptr inbounds nuw %struct.Vec_Int_t_, ptr %31, i32 0, i32 1
  %33 = load i32, ptr %32, align 4, !tbaa !44
  %34 = add nsw i32 %33, 1
  store i32 %34, ptr %32, align 4, !tbaa !44
  %35 = sext i32 %33 to i64
  %36 = getelementptr inbounds i32, ptr %30, i64 %35
  store i32 %27, ptr %36, align 4, !tbaa !15
  ret void
}

; Function Attrs: inlinehint nounwind uwtable
define internal i32 @Vec_IntAddToEntry(ptr noundef %0, i32 noundef %1, i32 noundef %2) #2 {
  %4 = alloca ptr, align 8
  %5 = alloca i32, align 4
  %6 = alloca i32, align 4
  store ptr %0, ptr %4, align 8, !tbaa !39
  store i32 %1, ptr %5, align 4, !tbaa !15
  store i32 %2, ptr %6, align 4, !tbaa !15
  %7 = load i32, ptr %6, align 4, !tbaa !15
  %8 = load ptr, ptr %4, align 8, !tbaa !39
  %9 = getelementptr inbounds nuw %struct.Vec_Int_t_, ptr %8, i32 0, i32 2
  %10 = load ptr, ptr %9, align 8, !tbaa !43
  %11 = load i32, ptr %5, align 4, !tbaa !15
  %12 = sext i32 %11 to i64
  %13 = getelementptr inbounds i32, ptr %10, i64 %12
  %14 = load i32, ptr %13, align 4, !tbaa !15
  %15 = add nsw i32 %14, %7
  store i32 %15, ptr %13, align 4, !tbaa !15
  ret i32 %15
}

; Function Attrs: inlinehint nounwind uwtable
define internal i32 @Vec_BitEntry(ptr noundef %0, i32 noundef %1) #2 {
  %3 = alloca ptr, align 8
  %4 = alloca i32, align 4
  store ptr %0, ptr %3, align 8, !tbaa !37
  store i32 %1, ptr %4, align 4, !tbaa !15
  %5 = load ptr, ptr %3, align 8, !tbaa !37
  %6 = getelementptr inbounds nuw %struct.Vec_Bit_t_, ptr %5, i32 0, i32 2
  %7 = load ptr, ptr %6, align 8, !tbaa !41
  %8 = load i32, ptr %4, align 4, !tbaa !15
  %9 = ashr i32 %8, 5
  %10 = sext i32 %9 to i64
  %11 = getelementptr inbounds i32, ptr %7, i64 %10
  %12 = load i32, ptr %11, align 4, !tbaa !15
  %13 = load i32, ptr %4, align 4, !tbaa !15
  %14 = and i32 %13, 31
  %15 = ashr i32 %12, %14
  %16 = and i32 %15, 1
  ret i32 %16
}

; Function Attrs: inlinehint nounwind uwtable
define internal i32 @Wlc_ObjId(ptr noundef %0, ptr noundef %1) #2 {
  %3 = alloca ptr, align 8
  %4 = alloca ptr, align 8
  store ptr %0, ptr %3, align 8, !tbaa !13
  store ptr %1, ptr %4, align 8, !tbaa !16
  %5 = load ptr, ptr %4, align 8, !tbaa !16
  %6 = load ptr, ptr %3, align 8, !tbaa !13
  %7 = getelementptr inbounds nuw %struct.Wlc_Ntk_t_, ptr %6, i32 0, i32 18
  %8 = load ptr, ptr %7, align 8, !tbaa !27
  %9 = ptrtoint ptr %5 to i64
  %10 = ptrtoint ptr %8 to i64
  %11 = sub i64 %9, %10
  %12 = sdiv exact i64 %11, 24
  %13 = trunc i64 %12 to i32
  ret i32 %13
}

; Function Attrs: nounwind uwtable
define void @Wlc_NtkAbsGetSupp_rec(ptr noundef %0, ptr noundef %1, ptr noundef %2, ptr noundef %3, ptr noundef %4) #0 {
  %6 = alloca ptr, align 8
  %7 = alloca ptr, align 8
  %8 = alloca ptr, align 8
  %9 = alloca ptr, align 8
  %10 = alloca ptr, align 8
  %11 = alloca i32, align 4
  %12 = alloca i32, align 4
  %13 = alloca i32, align 4
  %14 = alloca i32, align 4
  store ptr %0, ptr %6, align 8, !tbaa !13
  store ptr %1, ptr %7, align 8, !tbaa !16
  store ptr %2, ptr %8, align 8, !tbaa !37
  store ptr %3, ptr %9, align 8, !tbaa !39
  store ptr %4, ptr %10, align 8, !tbaa !39
  call void @llvm.lifetime.start.p0(i64 4, ptr %11) #13
  call void @llvm.lifetime.start.p0(i64 4, ptr %12) #13
  call void @llvm.lifetime.start.p0(i64 4, ptr %13) #13
  %15 = load ptr, ptr %7, align 8, !tbaa !16
  %16 = load i16, ptr %15, align 8
  %17 = lshr i16 %16, 7
  %18 = and i16 %17, 1
  %19 = zext i16 %18 to i32
  %20 = icmp ne i32 %19, 0
  br i1 %20, label %21, label %22

21:                                               ; preds = %5
  store i32 1, ptr %14, align 4
  br label %72

22:                                               ; preds = %5
  %23 = load ptr, ptr %7, align 8, !tbaa !16
  %24 = load i16, ptr %23, align 8
  %25 = and i16 %24, -129
  %26 = or i16 %25, 128
  store i16 %26, ptr %23, align 8
  %27 = load ptr, ptr %6, align 8, !tbaa !13
  %28 = load ptr, ptr %7, align 8, !tbaa !16
  %29 = call i32 @Wlc_ObjId(ptr noundef %27, ptr noundef %28)
  store i32 %29, ptr %13, align 4, !tbaa !15
  %30 = load ptr, ptr %8, align 8, !tbaa !37
  %31 = load i32, ptr %13, align 4, !tbaa !15
  %32 = call i32 @Vec_BitEntry(ptr noundef %30, i32 noundef %31)
  %33 = icmp ne i32 %32, 0
  br i1 %33, label %34, label %48

34:                                               ; preds = %22
  %35 = load ptr, ptr %9, align 8, !tbaa !39
  %36 = icmp ne ptr %35, null
  br i1 %36, label %37, label %41

37:                                               ; preds = %34
  %38 = load ptr, ptr %9, align 8, !tbaa !39
  %39 = load i32, ptr %13, align 4, !tbaa !15
  %40 = call i32 @Vec_IntAddToEntry(ptr noundef %38, i32 noundef %39, i32 noundef 1)
  br label %41

41:                                               ; preds = %37, %34
  %42 = load ptr, ptr %10, align 8, !tbaa !39
  %43 = icmp ne ptr %42, null
  br i1 %43, label %44, label %47

44:                                               ; preds = %41
  %45 = load ptr, ptr %10, align 8, !tbaa !39
  %46 = load i32, ptr %13, align 4, !tbaa !15
  call void @Vec_IntPush(ptr noundef %45, i32 noundef %46)
  br label %47

47:                                               ; preds = %44, %41
  store i32 1, ptr %14, align 4
  br label %72

48:                                               ; preds = %22
  store i32 0, ptr %11, align 4, !tbaa !15
  br label %49

49:                                               ; preds = %68, %48
  %50 = load i32, ptr %11, align 4, !tbaa !15
  %51 = load ptr, ptr %7, align 8, !tbaa !16
  %52 = call i32 @Wlc_ObjFaninNum(ptr noundef %51)
  %53 = icmp slt i32 %50, %52
  br i1 %53, label %54, label %58

54:                                               ; preds = %49
  %55 = load ptr, ptr %7, align 8, !tbaa !16
  %56 = load i32, ptr %11, align 4, !tbaa !15
  %57 = call i32 @Wlc_ObjFaninId(ptr noundef %55, i32 noundef %56)
  store i32 %57, ptr %12, align 4, !tbaa !15
  br label %58

58:                                               ; preds = %54, %49
  %59 = phi i1 [ false, %49 ], [ true, %54 ]
  br i1 %59, label %60, label %71

60:                                               ; preds = %58
  %61 = load ptr, ptr %6, align 8, !tbaa !13
  %62 = load ptr, ptr %6, align 8, !tbaa !13
  %63 = load i32, ptr %12, align 4, !tbaa !15
  %64 = call ptr @Wlc_NtkObj(ptr noundef %62, i32 noundef %63)
  %65 = load ptr, ptr %8, align 8, !tbaa !37
  %66 = load ptr, ptr %9, align 8, !tbaa !39
  %67 = load ptr, ptr %10, align 8, !tbaa !39
  call void @Wlc_NtkAbsGetSupp_rec(ptr noundef %61, ptr noundef %64, ptr noundef %65, ptr noundef %66, ptr noundef %67)
  br label %68

68:                                               ; preds = %60
  %69 = load i32, ptr %11, align 4, !tbaa !15
  %70 = add nsw i32 %69, 1
  store i32 %70, ptr %11, align 4, !tbaa !15
  br label %49, !llvm.loop !40

71:                                               ; preds = %58
  store i32 0, ptr %14, align 4
  br label %72

72:                                               ; preds = %71, %47, %21
  call void @llvm.lifetime.end.p0(i64 4, ptr %13) #13
  call void @llvm.lifetime.end.p0(i64 4, ptr %12) #13
  call void @llvm.lifetime.end.p0(i64 4, ptr %11) #13
  %73 = load i32, ptr %14, align 4
  switch i32 %73, label %75 [
    i32 0, label %74
    i32 1, label %74
  ]

74:                                               ; preds = %72, %72
  ret void

75:                                               ; preds = %72
  unreachable
}