; Function Attrs: nounwind uwtable
define void @Wlc_NtkAbsGetSupp_rec(ptr noundef readonly captures(none) %0, ptr noundef %1, ptr noundef readonly captures(none) %2, ptr noundef %3, ptr noundef %4) local_unnamed_addr #1 {
  %6 = load i16, ptr %1, align 8
  %7 = and i16 %6, 128
  %.not = icmp eq i16 %7, 0
  br i1 %.not, label %8, label %.critedge

8:                                                ; preds = %5
  %9 = or disjoint i16 %6, 128
  store i16 %9, ptr %1, align 8
  %10 = getelementptr i8, ptr %0, i64 640
  %.val27 = load ptr, ptr %10, align 8, !tbaa !19
  %11 = ptrtoint ptr %1 to i64
  %12 = ptrtoint ptr %.val27 to i64
  %13 = sub i64 %11, %12
  %14 = sdiv exact i64 %13, 24
  %15 = trunc i64 %14 to i32
  %16 = getelementptr i8, ptr %2, i64 8
  %.val28 = load ptr, ptr %16, align 8, !tbaa !37
  %17 = ashr i32 %15, 5
  %18 = sext i32 %17 to i64
  %19 = getelementptr inbounds i32, ptr %.val28, i64 %18
  %20 = load i32, ptr %19, align 4, !tbaa !15
  %21 = and i32 %15, 31
  %22 = shl nuw i32 1, %21
  %23 = and i32 %22, %20
  %.not24 = icmp eq i32 %23, 0
  br i1 %.not24, label %.preheader, label %27

.preheader:                                       ; preds = %8
  %24 = getelementptr i8, ptr %1, i64 4
  %.val3031 = load i32, ptr %24, align 4, !tbaa !39
  %25 = icmp sgt i32 %.val3031, 0
  br i1 %25, label %.lr.ph, label %.critedge

.lr.ph:                                           ; preds = %.preheader
  %26 = getelementptr inbounds nuw i8, ptr %1, i64 16
  br label %67

27:                                               ; preds = %8
  %.not25 = icmp eq ptr %3, null
  br i1 %.not25, label %34, label %28

28:                                               ; preds = %27
  %29 = getelementptr i8, ptr %3, i64 8
  %.val29 = load ptr, ptr %29, align 8, !tbaa !14
  %sext = shl i64 %14, 32
  %30 = ashr exact i64 %sext, 30
  %31 = getelementptr inbounds i8, ptr %.val29, i64 %30
  %32 = load i32, ptr %31, align 4, !tbaa !15
  %33 = add nsw i32 %32, 1
  store i32 %33, ptr %31, align 4, !tbaa !15
  br label %34

34:                                               ; preds = %28, %27
  %.not26 = icmp eq ptr %4, null
  br i1 %.not26, label %.critedge, label %35

35:                                               ; preds = %34
  %36 = getelementptr inbounds nuw i8, ptr %4, i64 4
  %37 = load i32, ptr %36, align 4, !tbaa !11
  %38 = load i32, ptr %4, align 8, !tbaa !41
  %39 = icmp eq i32 %37, %38
  br i1 %39, label %40, label %.Vec_IntGrow.exit10_crit_edge.i

.Vec_IntGrow.exit10_crit_edge.i:                  ; preds = %35
  %.phi.trans.insert.i = getelementptr inbounds nuw i8, ptr %4, i64 8
  %.pre.i = load ptr, ptr %.phi.trans.insert.i, align 8, !tbaa !14
  br label %Vec_IntPush.exit

40:                                               ; preds = %35
  %41 = icmp slt i32 %37, 16
  br i1 %41, label %42, label %50

42:                                               ; preds = %40
  %43 = getelementptr inbounds nuw i8, ptr %4, i64 8
  %44 = load ptr, ptr %43, align 8, !tbaa !14
  %.not9.i.i = icmp eq ptr %44, null
  br i1 %.not9.i.i, label %47, label %45

45:                                               ; preds = %42
  %46 = tail call dereferenceable_or_null(64) ptr @realloc(ptr noundef nonnull %44, i64 noundef 64) #26
  br label %Vec_IntGrow.exit.i

47:                                               ; preds = %42
  %48 = tail call noalias dereferenceable_or_null(64) ptr @malloc(i64 noundef 64) #27
  br label %Vec_IntGrow.exit.i

Vec_IntGrow.exit.i:                               ; preds = %47, %45
  %49 = phi ptr [ %46, %45 ], [ %48, %47 ]
  store ptr %49, ptr %43, align 8, !tbaa !14
  store i32 16, ptr %4, align 8, !tbaa !41
  br label %Vec_IntPush.exit

50:                                               ; preds = %40
  %51 = shl nuw nsw i32 %37, 1
  %52 = getelementptr inbounds nuw i8, ptr %4, i64 8
  %53 = load ptr, ptr %52, align 8, !tbaa !14
  %.not9.i9.i = icmp eq ptr %53, null
  %54 = zext nneg i32 %51 to i64
  %55 = shl nuw nsw i64 %54, 2
  br i1 %.not9.i9.i, label %58, label %56

56:                                               ; preds = %50
  %57 = tail call ptr @realloc(ptr noundef nonnull %53, i64 noundef %55) #26
  br label %60

58:                                               ; preds = %50
  %59 = tail call noalias ptr @malloc(i64 noundef %55) #27
  br label %60

60:                                               ; preds = %58, %56
  %61 = phi ptr [ %57, %56 ], [ %59, %58 ]
  store ptr %61, ptr %52, align 8, !tbaa !14
  store i32 %51, ptr %4, align 8, !tbaa !41
  br label %Vec_IntPush.exit

Vec_IntPush.exit:                                 ; preds = %.Vec_IntGrow.exit10_crit_edge.i, %Vec_IntGrow.exit.i, %60
  %62 = phi ptr [ %.pre.i, %.Vec_IntGrow.exit10_crit_edge.i ], [ %61, %60 ], [ %49, %Vec_IntGrow.exit.i ]
  %63 = load i32, ptr %36, align 4, !tbaa !11
  %64 = add nsw i32 %63, 1
  store i32 %64, ptr %36, align 4, !tbaa !11
  %65 = sext i32 %63 to i64
  %66 = getelementptr inbounds i32, ptr %62, i64 %65
  store i32 %15, ptr %66, align 4, !tbaa !15
  br label %.critedge

67:                                               ; preds = %.lr.ph, %Wlc_ObjFaninId.exit
  %indvars.iv = phi i64 [ 0, %.lr.ph ], [ %indvars.iv.next, %Wlc_ObjFaninId.exit ]
  %.val3033 = phi i32 [ %.val3031, %.lr.ph ], [ %.val30, %Wlc_ObjFaninId.exit ]
  %68 = icmp ugt i32 %.val3033, 2
  br i1 %68, label %Wlc_ObjHasArray.exit.thread.i.i, label %69

69:                                               ; preds = %67
  %70 = load i16, ptr %1, align 8
  %71 = and i16 %70, 63
  switch i16 %71, label %Wlc_ObjFaninId.exit [
    i16 6, label %Wlc_ObjHasArray.exit.thread.i.i
    i16 22, label %Wlc_ObjHasArray.exit.thread.i.i
  ]

Wlc_ObjHasArray.exit.thread.i.i:                  ; preds = %69, %69, %67
  %72 = load ptr, ptr %26, align 8, !tbaa !28
  br label %Wlc_ObjFaninId.exit

Wlc_ObjFaninId.exit:                              ; preds = %69, %Wlc_ObjHasArray.exit.thread.i.i
  %73 = phi ptr [ %72, %Wlc_ObjHasArray.exit.thread.i.i ], [ %26, %69 ]
  %74 = getelementptr inbounds nuw i32, ptr %73, i64 %indvars.iv
  %75 = load i32, ptr %74, align 4, !tbaa !15
  %.val = load ptr, ptr %10, align 8, !tbaa !19
  %76 = sext i32 %75 to i64
  %77 = getelementptr inbounds %struct.Wlc_Obj_t_, ptr %.val, i64 %76
  tail call void @Wlc_NtkAbsGetSupp_rec(ptr noundef nonnull %0, ptr noundef %77, ptr noundef %2, ptr noundef %3, ptr noundef %4)
  %indvars.iv.next = add nuw nsw i64 %indvars.iv, 1
  %.val30 = load i32, ptr %24, align 4, !tbaa !39
  %78 = sext i32 %.val30 to i64
  %79 = icmp slt i64 %indvars.iv.next, %78
  br i1 %79, label %67, label %.critedge, !llvm.loop !42

.critedge:                                        ; preds = %Wlc_ObjFaninId.exit, %.preheader, %34, %Vec_IntPush.exit, %5
  ret void
}